; Function Attrs: mustprogress uwtable
define void @_ZN6icu_7519BreakTransliterator19replaceableAsStringERNS_11ReplaceableE(ptr noalias sret(%"class.icu_75::UnicodeString") align 8 %agg.result, ptr noundef nonnull align 8 dereferenceable(8) %r) local_unnamed_addr #1 align 2 personality ptr @__gxx_personality_v0 {
entry:
  store ptr getelementptr inbounds ({ [13 x ptr] }, ptr @_ZTVN6icu_7513UnicodeStringE, i64 0, i32 0, i64 2), ptr %agg.result, align 8
  %fUnion2.i = getelementptr inbounds i8, ptr %agg.result, i64 8
  store i16 2, ptr %fUnion2.i, align 8
  %0 = tail call ptr @__dynamic_cast(ptr nonnull %r, ptr nonnull @_ZTIN6icu_7511ReplaceableE, ptr nonnull @_ZTIN6icu_7513UnicodeStringE, i64 0) #12
  %cmp.not = icmp eq ptr %0, null
  br i1 %cmp.not, label %if.else, label %if.then

if.then:                                          ; preds = %entry
  %call = invoke noundef nonnull align 8 dereferenceable(64) ptr @_ZN6icu_7513UnicodeStringaSERKS0_(ptr noundef nonnull align 8 dereferenceable(64) %agg.result, ptr noundef nonnull align 8 dereferenceable(64) %0)
          to label %nrvo.skipdtor unwind label %lpad

lpad:                                             ; preds = %if.else, %invoke.cont1, %if.then
  %1 = landingpad { ptr, i32 }
          cleanup
  tail call void @_ZN6icu_7513UnicodeStringD1Ev(ptr noundef nonnull align 8 dereferenceable(64) %agg.result) #12
  resume { ptr, i32 } %1

if.else:                                          ; preds = %entry
  %vtable.i = load ptr, ptr %r, align 8
  %vfn.i = getelementptr inbounds i8, ptr %vtable.i, i64 64
  %2 = load ptr, ptr %vfn.i, align 8
  %call.i4 = invoke noundef i32 %2(ptr noundef nonnull align 8 dereferenceable(8) %r)
          to label %invoke.cont1 unwind label %lpad

invoke.cont1:                                     ; preds = %if.else
  %vtable = load ptr, ptr %r, align 8
  %vfn = getelementptr inbounds i8, ptr %vtable, i64 24
  %3 = load ptr, ptr %vfn, align 8
  invoke void %3(ptr noundef nonnull align 8 dereferenceable(8) %r, i32 noundef 0, i32 noundef %call.i4, ptr noundef nonnull align 8 dereferenceable(64) %agg.result)
          to label %nrvo.skipdtor unwind label %lpad

nrvo.skipdtor:                                    ; preds = %if.then, %invoke.cont1
  ret void
}